target datalayout = "e-m:e-p270:32:32-p271:32:32-p272:64:64-i64:64-i128:128-f80:128-n8:16:32:64-S128"
target triple = "x86_64-unknown-linux-gnu"

%struct.DBusDisplay = type { %struct.Object, i32, i8, ptr, ptr, %struct.DisplayGLCtx, ptr, ptr, ptr, ptr, ptr, %struct.QemuClipboardPeer, ptr, ptr, [3 x %struct.DBusClipboardRequest], %struct.Notifier }
%struct.Object = type { ptr, ptr, ptr, i32, ptr }
%struct.DisplayGLCtx = type { ptr }
%struct.QemuClipboardPeer = type { ptr, %struct.Notifier, ptr }
%struct.DBusClipboardRequest = type { ptr, i32, i32 }
%struct.Notifier = type { ptr, %struct.anon.0 }
%struct.anon.0 = type { ptr, ptr }
%union.anon.1 = type { ptr }
%union.anon.2 = type { ptr }
%union.anon.3 = type { ptr }
%union.anon.4 = type { ptr }
%union.anon.5 = type { ptr }
%union.anon.6 = type { ptr }

@dbus_display = internal global ptr null, align 8
@.str.4 = private unnamed_addr constant [13 x i8] c"dbus-display\00", align 1
@.str.9 = private unnamed_addr constant [18 x i8] c"../qemu/ui/dbus.h\00", align 1
@__func__.DBUS_DISPLAY = private unnamed_addr constant [13 x i8] c"DBUS_DISPLAY\00", align 1

; Function Attrs: nounwind sspstrong uwtable
define internal void @dbus_display_notifier_remove(ptr noundef %notifier) #0 {
entry:
  %notifier.addr = alloca ptr, align 8
  store ptr %notifier, ptr %notifier.addr, align 8
  %0 = load ptr, ptr %notifier.addr, align 8
  call void @notifier_remove(ptr noundef %0)
  ret void
}

; Function Attrs: nounwind sspstrong uwtable
define internal ptr @DBUS_DISPLAY(ptr noundef %obj) #0 {
entry:
  %obj.addr = alloca ptr, align 8
  store ptr %obj, ptr %obj.addr, align 8
  %0 = load ptr, ptr %obj.addr, align 8
  %call = call ptr @object_dynamic_cast_assert(ptr noundef %0, ptr noundef @.str.4, ptr noundef @.str.9, i32 noundef 72, ptr noundef @__func__.DBUS_DISPLAY)
  ret ptr %call
}

; Function Attrs: nounwind sspstrong uwtable
define internal void @dbus_display_finalize(ptr noundef %o) #0 {
entry:
  %o.addr = alloca ptr, align 8
  %dd = alloca ptr, align 8
  %_pp = alloca %union.anon.1, align 8
  %_p = alloca ptr, align 8
  %_destroy = alloca ptr, align 8
  %_pp6 = alloca %union.anon.2, align 8
  %_p7 = alloca ptr, align 8
  %_destroy8 = alloca ptr, align 8
  %_pp14 = alloca %union.anon.3, align 8
  %_p15 = alloca ptr, align 8
  %_destroy16 = alloca ptr, align 8
  %_pp26 = alloca %union.anon.4, align 8
  %_p27 = alloca ptr, align 8
  %_destroy28 = alloca ptr, align 8
  %_pp35 = alloca %union.anon.5, align 8
  %_p36 = alloca ptr, align 8
  %_destroy37 = alloca ptr, align 8
  %_pp43 = alloca %union.anon.6, align 8
  %_p44 = alloca ptr, align 8
  %_destroy45 = alloca ptr, align 8
  store ptr %o, ptr %o.addr, align 8
  %0 = load ptr, ptr %o.addr, align 8
  %call = call ptr @DBUS_DISPLAY(ptr noundef %0)
  store ptr %call, ptr %dd, align 8
  %1 = load ptr, ptr %dd, align 8
  %notifier = getelementptr inbounds %struct.DBusDisplay, ptr %1, i32 0, i32 15
  %notify = getelementptr inbounds %struct.Notifier, ptr %notifier, i32 0, i32 0
  %2 = load ptr, ptr %notify, align 8
  %tobool = icmp ne ptr %2, null
  br i1 %tobool, label %if.then, label %if.end

if.then:                                          ; preds = %entry
  %3 = load ptr, ptr %dd, align 8
  %notifier1 = getelementptr inbounds %struct.DBusDisplay, ptr %3, i32 0, i32 15
  call void @dbus_display_notifier_remove(ptr noundef %notifier1)
  br label %if.end

if.end:                                           ; preds = %if.then, %entry
  %4 = load ptr, ptr %dd, align 8
  %clipboard_peer = getelementptr inbounds %struct.DBusDisplay, ptr %4, i32 0, i32 11
  call void @qemu_clipboard_peer_unregister(ptr noundef %clipboard_peer)
  br label %do.body

do.body:                                          ; preds = %if.end
  store ptr @g_object_unref, ptr %_destroy, align 8
  %5 = load ptr, ptr %dd, align 8
  %clipboard = getelementptr inbounds %struct.DBusDisplay, ptr %5, i32 0, i32 12
  store ptr %clipboard, ptr %_pp, align 8
  %6 = load ptr, ptr %_pp, align 8
  %7 = load ptr, ptr %6, align 8
  store ptr %7, ptr %_p, align 8
  %8 = load ptr, ptr %_p, align 8
  %tobool2 = icmp ne ptr %8, null
  br i1 %tobool2, label %if.then3, label %if.end4

if.then3:                                         ; preds = %do.body
  %9 = load ptr, ptr %_pp, align 8
  store ptr null, ptr %9, align 8
  %10 = load ptr, ptr %_destroy, align 8
  %11 = load ptr, ptr %_p, align 8
  call void %10(ptr noundef %11)
  br label %if.end4

if.end4:                                          ; preds = %if.then3, %do.body
  br label %do.end

do.end:                                           ; preds = %if.end4
  br label %do.body5

do.body5:                                         ; preds = %do.end
  store ptr @g_object_unref, ptr %_destroy8, align 8
  %12 = load ptr, ptr %dd, align 8
  %server = getelementptr inbounds %struct.DBusDisplay, ptr %12, i32 0, i32 7
  store ptr %server, ptr %_pp6, align 8
  %13 = load ptr, ptr %_pp6, align 8
  %14 = load ptr, ptr %13, align 8
  store ptr %14, ptr %_p7, align 8
  %15 = load ptr, ptr %_p7, align 8
  %tobool9 = icmp ne ptr %15, null
  br i1 %tobool9, label %if.then10, label %if.end11

if.then10:                                        ; preds = %do.body5
  %16 = load ptr, ptr %_pp6, align 8
  store ptr null, ptr %16, align 8
  %17 = load ptr, ptr %_destroy8, align 8
  %18 = load ptr, ptr %_p7, align 8
  call void %17(ptr noundef %18)
  br label %if.end11

if.end11:                                         ; preds = %if.then10, %do.body5
  br label %do.end12

do.end12:                                         ; preds = %if.end11
  br label %do.body13

do.body13:                                        ; preds = %do.end12
  store ptr @g_ptr_array_unref, ptr %_destroy16, align 8
  %19 = load ptr, ptr %dd, align 8
  %consoles = getelementptr inbounds %struct.DBusDisplay, ptr %19, i32 0, i32 9
  store ptr %consoles, ptr %_pp14, align 8
  %20 = load ptr, ptr %_pp14, align 8
  %21 = load ptr, ptr %20, align 8
  store ptr %21, ptr %_p15, align 8
  %22 = load ptr, ptr %_p15, align 8
  %tobool17 = icmp ne ptr %22, null
  br i1 %tobool17, label %if.then18, label %if.end19

if.then18:                                        ; preds = %do.body13
  %23 = load ptr, ptr %_pp14, align 8
  store ptr null, ptr %23, align 8
  %24 = load ptr, ptr %_destroy16, align 8
  %25 = load ptr, ptr %_p15, align 8
  call void %24(ptr noundef %25)
  br label %if.end19

if.end19:                                         ; preds = %if.then18, %do.body13
  br label %do.end20

do.end20:                                         ; preds = %if.end19
  %26 = load ptr, ptr %dd, align 8
  %add_client_cancellable = getelementptr inbounds %struct.DBusDisplay, ptr %26, i32 0, i32 10
  %27 = load ptr, ptr %add_client_cancellable, align 8
  %tobool21 = icmp ne ptr %27, null
  br i1 %tobool21, label %if.then22, label %if.end24

if.then22:                                        ; preds = %do.end20
  %28 = load ptr, ptr %dd, align 8
  %add_client_cancellable23 = getelementptr inbounds %struct.DBusDisplay, ptr %28, i32 0, i32 10
  %29 = load ptr, ptr %add_client_cancellable23, align 8
  call void @g_cancellable_cancel(ptr noundef %29)
  br label %if.end24

if.end24:                                         ; preds = %if.then22, %do.end20
  br label %do.body25

do.body25:                                        ; preds = %if.end24
  store ptr @g_object_unref, ptr %_destroy28, align 8
  %30 = load ptr, ptr %dd, align 8
  %add_client_cancellable29 = getelementptr inbounds %struct.DBusDisplay, ptr %30, i32 0, i32 10
  store ptr %add_client_cancellable29, ptr %_pp26, align 8
  %31 = load ptr, ptr %_pp26, align 8
  %32 = load ptr, ptr %31, align 8
  store ptr %32, ptr %_p27, align 8
  %33 = load ptr, ptr %_p27, align 8
  %tobool30 = icmp ne ptr %33, null
  br i1 %tobool30, label %if.then31, label %if.end32

if.then31:                                        ; preds = %do.body25
  %34 = load ptr, ptr %_pp26, align 8
  store ptr null, ptr %34, align 8
  %35 = load ptr, ptr %_destroy28, align 8
  %36 = load ptr, ptr %_p27, align 8
  call void %35(ptr noundef %36)
  br label %if.end32

if.end32:                                         ; preds = %if.then31, %do.body25
  br label %do.end33

do.end33:                                         ; preds = %if.end32
  br label %do.body34

do.body34:                                        ; preds = %do.end33
  store ptr @g_object_unref, ptr %_destroy37, align 8
  %37 = load ptr, ptr %dd, align 8
  %bus = getelementptr inbounds %struct.DBusDisplay, ptr %37, i32 0, i32 6
  store ptr %bus, ptr %_pp35, align 8
  %38 = load ptr, ptr %_pp35, align 8
  %39 = load ptr, ptr %38, align 8
  store ptr %39, ptr %_p36, align 8
  %40 = load ptr, ptr %_p36, align 8
  %tobool38 = icmp ne ptr %40, null
  br i1 %tobool38, label %if.then39, label %if.end40

if.then39:                                        ; preds = %do.body34
  %41 = load ptr, ptr %_pp35, align 8
  store ptr null, ptr %41, align 8
  %42 = load ptr, ptr %_destroy37, align 8
  %43 = load ptr, ptr %_p36, align 8
  call void %42(ptr noundef %43)
  br label %if.end40

if.end40:                                         ; preds = %if.then39, %do.body34
  br label %do.end41

do.end41:                                         ; preds = %if.end40
  br label %do.body42

do.body42:                                        ; preds = %do.end41
  store ptr @g_object_unref, ptr %_destroy45, align 8
  %44 = load ptr, ptr %dd, align 8
  %iface = getelementptr inbounds %struct.DBusDisplay, ptr %44, i32 0, i32 8
  store ptr %iface, ptr %_pp43, align 8
  %45 = load ptr, ptr %_pp43, align 8
  %46 = load ptr, ptr %45, align 8
  store ptr %46, ptr %_p44, align 8
  %47 = load ptr, ptr %_p44, align 8
  %tobool46 = icmp ne ptr %47, null
  br i1 %tobool46, label %if.then47, label %if.end48

if.then47:                                        ; preds = %do.body42
  %48 = load ptr, ptr %_pp43, align 8
  store ptr null, ptr %48, align 8
  %49 = load ptr, ptr %_destroy45, align 8
  %50 = load ptr, ptr %_p44, align 8
  call void %49(ptr noundef %50)
  br label %if.end48

if.end48:                                         ; preds = %if.then47, %do.body42
  br label %do.end49

do.end49:                                         ; preds = %if.end48
  %51 = load ptr, ptr %dd, align 8
  %dbus_addr = getelementptr inbounds %struct.DBusDisplay, ptr %51, i32 0, i32 3
  %52 = load ptr, ptr %dbus_addr, align 8
  call void @g_free(ptr noundef %52)
  %53 = load ptr, ptr %dd, align 8
  %audiodev = getelementptr inbounds %struct.DBusDisplay, ptr %53, i32 0, i32 4
  %54 = load ptr, ptr %audiodev, align 8
  call void @g_free(ptr noundef %54)
  store ptr null, ptr @dbus_display, align 8
  ret void
}