; Function Attrs: nounwind sspstrong uwtable
define internal void @dbus_display_finalize(ptr noundef %o) #0 {
entry:
  %call.i = tail call ptr @object_dynamic_cast_assert(ptr noundef %o, ptr noundef nonnull @.str.4, ptr noundef nonnull @.str.9, i32 noundef 72, ptr noundef nonnull @__func__.DBUS_DISPLAY) #5
  %notifier = getelementptr inbounds nuw i8, ptr %call.i, i64 216
  %0 = load ptr, ptr %notifier, align 8
  %tobool.not = icmp eq ptr %0, null
  br i1 %tobool.not, label %if.end, label %if.then

if.then:                                          ; preds = %entry
  tail call void @notifier_remove(ptr noundef nonnull %notifier) #5
  br label %if.end

if.end:                                           ; preds = %if.then, %entry
  %clipboard_peer = getelementptr inbounds nuw i8, ptr %call.i, i64 112
  tail call void @qemu_clipboard_peer_unregister(ptr noundef nonnull %clipboard_peer) #5
  %clipboard = getelementptr inbounds nuw i8, ptr %call.i, i64 152
  %1 = load ptr, ptr %clipboard, align 8
  %tobool2.not = icmp eq ptr %1, null
  br i1 %tobool2.not, label %do.body5, label %if.then3

if.then3:                                         ; preds = %if.end
  store ptr null, ptr %clipboard, align 8
  tail call void @g_object_unref(ptr noundef nonnull %1) #5
  br label %do.body5

do.body5:                                         ; preds = %if.then3, %if.end
  %server = getelementptr inbounds nuw i8, ptr %call.i, i64 80
  %2 = load ptr, ptr %server, align 8
  %tobool9.not = icmp eq ptr %2, null
  br i1 %tobool9.not, label %do.body13, label %if.then10

if.then10:                                        ; preds = %do.body5
  store ptr null, ptr %server, align 8
  tail call void @g_object_unref(ptr noundef nonnull %2) #5
  br label %do.body13

do.body13:                                        ; preds = %if.then10, %do.body5
  %consoles = getelementptr inbounds nuw i8, ptr %call.i, i64 96
  %3 = load ptr, ptr %consoles, align 8
  %tobool17.not = icmp eq ptr %3, null
  br i1 %tobool17.not, label %do.end20, label %if.then18

if.then18:                                        ; preds = %do.body13
  store ptr null, ptr %consoles, align 8
  tail call void @g_ptr_array_unref(ptr noundef nonnull %3) #5
  br label %do.end20

do.end20:                                         ; preds = %do.body13, %if.then18
  %add_client_cancellable = getelementptr inbounds nuw i8, ptr %call.i, i64 104
  %4 = load ptr, ptr %add_client_cancellable, align 8
  %tobool21.not = icmp eq ptr %4, null
  br i1 %tobool21.not, label %do.body34, label %do.body25

do.body25:                                        ; preds = %do.end20
  tail call void @g_cancellable_cancel(ptr noundef nonnull %4) #5
  %.pr = load ptr, ptr %add_client_cancellable, align 8
  %tobool30.not = icmp eq ptr %.pr, null
  br i1 %tobool30.not, label %do.body34, label %if.then31

if.then31:                                        ; preds = %do.body25
  store ptr null, ptr %add_client_cancellable, align 8
  tail call void @g_object_unref(ptr noundef nonnull %.pr) #5
  br label %do.body34

do.body34:                                        ; preds = %do.end20, %if.then31, %do.body25
  %bus = getelementptr inbounds nuw i8, ptr %call.i, i64 72
  %5 = load ptr, ptr %bus, align 8
  %tobool38.not = icmp eq ptr %5, null
  br i1 %tobool38.not, label %do.body42, label %if.then39

if.then39:                                        ; preds = %do.body34
  store ptr null, ptr %bus, align 8
  tail call void @g_object_unref(ptr noundef nonnull %5) #5
  br label %do.body42

do.body42:                                        ; preds = %if.then39, %do.body34
  %iface = getelementptr inbounds nuw i8, ptr %call.i, i64 88
  %6 = load ptr, ptr %iface, align 8
  %tobool46.not = icmp eq ptr %6, null
  br i1 %tobool46.not, label %do.end49, label %if.then47

if.then47:                                        ; preds = %do.body42
  store ptr null, ptr %iface, align 8
  tail call void @g_object_unref(ptr noundef nonnull %6) #5
  br label %do.end49

do.end49:                                         ; preds = %do.body42, %if.then47
  %dbus_addr = getelementptr inbounds nuw i8, ptr %call.i, i64 48
  %7 = load ptr, ptr %dbus_addr, align 8
  tail call void @g_free(ptr noundef %7) #5
  %audiodev = getelementptr inbounds nuw i8, ptr %call.i, i64 56
  %8 = load ptr, ptr %audiodev, align 8
  tail call void @g_free(ptr noundef %8) #5
  store ptr null, ptr @dbus_display, align 8
  ret void
}